target datalayout = "e-m:e-p270:32:32-p271:32:32-p272:64:64-i64:64-i128:128-f80:128-n8:16:32:64-S128"
target triple = "x86_64-pc-linux-gnu"

%class.GrowableArrayBase = type { i32, i32 }
%class.GrowableArrayView = type { %class.GrowableArrayBase, ptr }

; Function Attrs: mustprogress nounwind uwtable
define linkonce_odr hidden noundef nonnull align 8 dereferenceable(8) ptr @_ZN17GrowableArrayViewIPKcE2atEi(ptr noundef nonnull align 8 dereferenceable(16) %0, i32 noundef %1) #1 comdat align 2 {
  %3 = alloca ptr, align 8
  %4 = alloca i32, align 4
  store ptr %0, ptr %3, align 8
  store i32 %1, ptr %4, align 4
  %5 = load ptr, ptr %3, align 8
  %6 = getelementptr inbounds %class.GrowableArrayView, ptr %5, i32 0, i32 1
  %7 = load ptr, ptr %6, align 8
  %8 = load i32, ptr %4, align 4
  %9 = sext i32 %8 to i64
  %10 = getelementptr inbounds ptr, ptr %7, i64 %9
  ret ptr %10
}

; Function Attrs: mustprogress nounwind uwtable
define hidden noundef i32 @_ZN11FileMapInfo39longest_common_app_classpath_prefix_lenEiP13GrowableArrayIPKcE(ptr noundef nonnull align 8 dereferenceable(40) %0, i32 noundef %1, ptr noundef %2) #1 align 2 {
  %4 = alloca i32, align 4
  %5 = alloca ptr, align 8
  %6 = alloca i32, align 4
  %7 = alloca ptr, align 8
  %8 = alloca i32, align 4
  %9 = alloca i32, align 4
  store ptr %0, ptr %5, align 8
  store i32 %1, ptr %6, align 4
  store ptr %2, ptr %7, align 8
  %10 = load i32, ptr %6, align 4
  %11 = icmp eq i32 %10, 0
  br i1 %11, label %12, label %13

12:                                               ; preds = %3
  store i32 0, ptr %4, align 4
  br label %80

13:                                               ; preds = %3
  store i32 0, ptr %8, align 4
  br label %14

14:                                               ; preds = %77, %13
  store i32 0, ptr %9, align 4
  br label %15

15:                                               ; preds = %73, %14
  %16 = load i32, ptr %9, align 4
  %17 = load i32, ptr %6, align 4
  %18 = icmp slt i32 %16, %17
  br i1 %18, label %19, label %76

19:                                               ; preds = %15
  %20 = load ptr, ptr %7, align 8
  %21 = load i32, ptr %9, align 4
  %22 = call noundef nonnull align 8 dereferenceable(8) ptr @_ZN17GrowableArrayViewIPKcE2atEi(ptr noundef nonnull align 8 dereferenceable(16) %20, i32 noundef %21)
  %23 = load ptr, ptr %22, align 8
  %24 = load i32, ptr %8, align 4
  %25 = zext i32 %24 to i64
  %26 = getelementptr inbounds i8, ptr %23, i64 %25
  %27 = load i8, ptr %26, align 1
  %28 = sext i8 %27 to i32
  %29 = icmp ne i32 %28, 0
  br i1 %29, label %30, label %50

30:                                               ; preds = %19
  %31 = load ptr, ptr %7, align 8
  %32 = load i32, ptr %9, align 4
  %33 = call noundef nonnull align 8 dereferenceable(8) ptr @_ZN17GrowableArrayViewIPKcE2atEi(ptr noundef nonnull align 8 dereferenceable(16) %31, i32 noundef %32)
  %34 = load ptr, ptr %33, align 8
  %35 = load i32, ptr %8, align 4
  %36 = zext i32 %35 to i64
  %37 = getelementptr inbounds i8, ptr %34, i64 %36
  %38 = load i8, ptr %37, align 1
  %39 = sext i8 %38 to i32
  %40 = load ptr, ptr %7, align 8
  %41 = call noundef nonnull align 8 dereferenceable(8) ptr @_ZN17GrowableArrayViewIPKcE2atEi(ptr noundef nonnull align 8 dereferenceable(16) %40, i32 noundef 0)
  %42 = load ptr, ptr %41, align 8
  %43 = load i32, ptr %8, align 4
  %44 = zext i32 %43 to i64
  %45 = getelementptr inbounds i8, ptr %42, i64 %44
  %46 = load i8, ptr %45, align 1
  %47 = sext i8 %46 to i32
  %48 = icmp eq i32 %39, %47
  br i1 %48, label %49, label %50

49:                                               ; preds = %30
  br label %73

50:                                               ; preds = %30, %19
  br label %51

51:                                               ; preds = %71, %50
  %52 = load i32, ptr %8, align 4
  %53 = icmp ugt i32 %52, 0
  br i1 %53, label %54, label %72

54:                                               ; preds = %51
  %55 = load ptr, ptr %7, align 8
  %56 = call noundef nonnull align 8 dereferenceable(8) ptr @_ZN17GrowableArrayViewIPKcE2atEi(ptr noundef nonnull align 8 dereferenceable(16) %55, i32 noundef 0)
  %57 = load ptr, ptr %56, align 8
  %58 = load i32, ptr %8, align 4
  %59 = add i32 %58, -1
  store i32 %59, ptr %8, align 4
  %60 = zext i32 %59 to i64
  %61 = getelementptr inbounds i8, ptr %57, i64 %60
  %62 = load i8, ptr %61, align 1
  %63 = sext i8 %62 to i32
  %64 = call noundef ptr @_ZN2os14file_separatorEv()
  %65 = load i8, ptr %64, align 1
  %66 = sext i8 %65 to i32
  %67 = icmp eq i32 %63, %66
  br i1 %67, label %68, label %71

68:                                               ; preds = %54
  %69 = load i32, ptr %8, align 4
  %70 = add i32 %69, 1
  store i32 %70, ptr %4, align 4
  br label %80

71:                                               ; preds = %54
  br label %51, !llvm.loop !8

72:                                               ; preds = %51
  store i32 0, ptr %4, align 4
  br label %80

73:                                               ; preds = %49
  %74 = load i32, ptr %9, align 4
  %75 = add nsw i32 %74, 1
  store i32 %75, ptr %9, align 4
  br label %15, !llvm.loop !9

76:                                               ; preds = %15
  br label %77

77:                                               ; preds = %76
  %78 = load i32, ptr %8, align 4
  %79 = add i32 %78, 1
  store i32 %79, ptr %8, align 4
  br label %14, !llvm.loop !10

80:                                               ; preds = %72, %68, %12
  %81 = load i32, ptr %4, align 4
  ret i32 %81
}