; Function Attrs: mustprogress nounwind uwtable
define hidden noundef i32 @_ZN11FileMapInfo39longest_common_app_classpath_prefix_lenEiP13GrowableArrayIPKcE(ptr nocapture noundef nonnull readnone align 8 dereferenceable(40) %0, i32 noundef %1, ptr nocapture noundef readonly %2) local_unnamed_addr #0 align 2 {
  %4 = icmp eq i32 %1, 0
  br i1 %4, label %.loopexit, label %.preheader

.preheader:                                       ; preds = %3
  %5 = getelementptr inbounds i8, ptr %2, i64 8
  %6 = icmp sgt i32 %1, 0
  tail call void @llvm.assume(i1 %6)
  %7 = load ptr, ptr %5, align 8
  %wide.trip.count = zext nneg i32 %1 to i64
  br label %.lr.ph.us

.lr.ph.us:                                        ; preds = %._crit_edge.us, %.preheader
  %.017.us = phi i32 [ %20, %._crit_edge.us ], [ 0, %.preheader ]
  %8 = zext i32 %.017.us to i64
  br label %10

9:                                                ; preds = %15
  %indvars.iv.next = add nuw nsw i64 %indvars.iv, 1
  %exitcond.not = icmp eq i64 %indvars.iv.next, %wide.trip.count
  br i1 %exitcond.not, label %._crit_edge.us, label %10, !llvm.loop !6

10:                                               ; preds = %.lr.ph.us, %9
  %indvars.iv = phi i64 [ 0, %.lr.ph.us ], [ %indvars.iv.next, %9 ]
  %11 = getelementptr inbounds ptr, ptr %7, i64 %indvars.iv
  %12 = load ptr, ptr %11, align 8
  %13 = getelementptr inbounds i8, ptr %12, i64 %8
  %14 = load i8, ptr %13, align 1
  %.not.us = icmp eq i8 %14, 0
  br i1 %.not.us, label %.split.us.preheader, label %15

15:                                               ; preds = %10
  %16 = load ptr, ptr %7, align 8
  %17 = getelementptr inbounds i8, ptr %16, i64 %8
  %18 = load i8, ptr %17, align 1
  %19 = icmp eq i8 %14, %18
  br i1 %19, label %9, label %.split.us.preheader

.split.us.preheader:                              ; preds = %10, %15
  br label %.split.us

._crit_edge.us:                                   ; preds = %9
  %20 = add i32 %.017.us, 1
  br label %.lr.ph.us, !llvm.loop !8

.split.us:                                        ; preds = %.split.us.preheader, %21
  %indvars.iv24 = phi i64 [ %24, %21 ], [ %8, %.split.us.preheader ]
  %.not20 = icmp eq i64 %indvars.iv24, 0
  br i1 %.not20, label %.loopexit, label %21

21:                                               ; preds = %.split.us
  %22 = load ptr, ptr %5, align 8
  %23 = load ptr, ptr %22, align 8
  %24 = add nsw i64 %indvars.iv24, -1
  %25 = getelementptr inbounds i8, ptr %23, i64 %24
  %26 = load i8, ptr %25, align 1
  %27 = tail call noundef ptr @_ZN2os14file_separatorEv() #25
  %28 = load i8, ptr %27, align 1
  %29 = icmp eq i8 %26, %28
  br i1 %29, label %.loopexit.loopexit.split.loop.exit, label %.split.us, !llvm.loop !9

.loopexit.loopexit.split.loop.exit:               ; preds = %21
  %30 = trunc nuw i64 %indvars.iv24 to i32
  br label %.loopexit

.loopexit:                                        ; preds = %.split.us, %.loopexit.loopexit.split.loop.exit, %3
  %.018 = phi i32 [ 0, %3 ], [ %30, %.loopexit.loopexit.split.loop.exit ], [ 0, %.split.us ]
  ret i32 %.018
}